(dp0
S'1304'
p1
(dp2
S'position'
p3
(F120.826115
F24.604417
tp4
sS'name'
p5
S'Fengfu'
p6
ssS'1305'
p7
(dp8
g3
(F120.822319
F24.570036
tp9
sg5
S'Miaoli'
p10
ssS'1307'
p11
(dp12
g3
(F120.791571
F24.522509
tp13
sg5
S'Nanshi'
p14
ssS'1302'
p15
(dp16
g3
(F120.867051
F24.641439
tp17
sg5
S'Zaoqiao'
p18
ssS'1818'
p19
(dp20
g3
(F121.775354
F24.827034
tp21
sg5
S'Jiaoxi'
p22
ssS'1308'
p23
(dp24
g3
(F120.786173
F24.48634
tp25
sg5
S'Tongluo'
p26
ssS'1819'
p27
(dp28
g3
(F121.762727
F24.786802
tp29
sg5
S'Sicheng'
p30
ssS'1705'
p31
(dp32
g3
(F121.800926
F24.463396
tp33
sg5
S'Nanao'
p34
ssS'5101'
p35
(dp36
g3
(F120.272176
F22.907187
tp37
sg5
S'CJCU'
p38
ssS'1317'
p39
(dp40
g3
(F120.723447
F24.254111
tp41
sg5
S'Fengyuan'
p42
ssS'1623'
p43
(dp44
g3
(F121.248692
F23.179132
tp45
sg5
S'Fuli'
p46
ssS'1315'
p47
(dp48
g3
(F120.732893
F24.309312
tp49
sg5
S'Houli'
p50
ssS'1314'
p51
(dp52
g3
(F120.741816
F24.331292
tp53
sg5
S'Taian'
p54
ssS'1310'
p55
(dp56
g3
(F120.773931
F24.42062
tp57
sg5
S'Sanyi'
p58
ssS'2705'
p59
(dp60
g3
(F120.784891
F23.826451
tp61
sg5
S'Jiji'
p62
ssS'2704'
p63
(dp64
g3
(F120.750404
F23.835188
tp65
sg5
S'Longquan'
p66
ssS'2707'
p67
(dp68
g3
(F120.865745
F23.832637
tp69
sg5
S'Checheng'
p70
ssS'2706'
p71
(dp72
g3
(F120.853323
F23.818456
tp73
sg5
S'Shuili'
p74
ssS'1621'
p75
(dp76
g3
(F121.304181
F23.272309
tp77
sg5
S'Dongli'
p78
ssS'1319'
p79
(dp80
g3
(F120.686827
F24.136955
tp81
sg5
S'Taichung'
p82
ssS'1318'
p83
(dp84
g3
(F120.705947
F24.212802
tp85
sg5
S'Tanzi'
p86
ssS'1403'
p87
(dp88
g3
(F120.391125
F22.640067
tp89
sg5
S'Houzhuang'
p90
ssS'2210'
p91
(dp92
g3
(F121.182325
F24.705317
tp93
sg5
S'Neiwan'
p94
ssS'1402'
p95
(dp96
g3
(F120.357683
F22.631284
tp97
sg5
S'Fengshan'
p98
ssS'2211'
p99
(dp100
g3
(F121.083399
F24.74839
tp101
sg5
S'Ronghua'
p102
ssS'1626'
p103
(dp104
g3
(F121.164373
F23.045665
tp105
sg5
S'Guanshan'
p106
ssS'1703'
p107
(dp108
g3
(F121.844564
F24.568417
tp109
sg5
S'Yongle'
p110
ssS'1704'
p111
(dp112
g3
(F121.830683
F24.518221
tp113
sg5
S'Dongao'
p114
ssS'1625'
p115
(dp116
g3
(F121.176829
F23.102934
tp117
sg5
S'Haiduan'
p118
ssS'1706'
p119
(dp120
g3
(F121.776037
F24.448674
tp121
sg5
S'Wuta'
p122
ssS'1708'
p123
(dp124
g3
(F121.768355
F24.335428
tp125
sg5
S'Hanben'
p126
ssS'1709'
p127
(dp128
g3
(F121.753346
F24.298296
tp129
sg5
S'Heping'
p130
ssS'1827'
p131
(dp132
g3
(F121.85144
F24.595181
tp133
sg5
S'Suao'
p134
ssS'1624'
p135
(dp136
g3
(F121.21939
F23.126158
tp137
sg5
S'Chishang'
p138
ssS'1821'
p139
(dp140
g3
(F121.774131
F24.705267
tp141
sg5
S'Erjie'
p142
ssS'1820'
p143
(dp144
g3
(F121.758253
F24.754512
tp145
sg5
S'Yilan'
p146
ssS'1823'
p147
(dp148
g3
(F121.774629
F24.677929
tp149
sg5
S'Luodong'
p150
ssS'1406'
p151
(dp152
g3
(F120.486203
F22.669306
tp153
sg5
S'Pingtung'
p154
ssS'1418'
p155
(dp156
g3
(F120.595098
F22.368019
tp157
sg5
S'Fangliao'
p158
ssS'1825'
p159
(dp160
g3
(F121.8229
F24.615395
tp161
sg5
S'Xinma'
p162
ssS'1405'
p163
(dp164
g3
(F120.464873
F22.666252
tp165
sg5
S'Liukuaicuo'
p166
ssS'1824'
p167
(dp168
g3
(F121.792246
F24.636726
tp169
sg5
S'Dongshan'
p170
ssS'1410'
p171
(dp172
g3
(F120.540002
F22.586491
tp173
sg5
S'Zhutian'
p174
ssS'1411'
p175
(dp176
g3
(F120.53642
F22.550086
tp177
sg5
S'Chaozhou'
p178
ssS'1412'
p179
(dp180
g3
(F120.514765
F22.51306
tp181
sg5
S'Kanding'
p182
ssS'1404'
p183
(dp184
g3
(F120.420879
F22.656423
tp185
sg5
S'Jiuqutang'
p186
ssS'1414'
p187
(dp188
g3
(F120.511356
F22.457984
tp189
sg5
S'Zhenan'
p190
ssS'1415'
p191
(dp192
g3
(F120.515376
F22.431406
tp193
sg5
S'Linbian'
p194
ssS'1416'
p195
(dp196
g3
(F120.547742
F22.414087
tp197
sg5
S'Jiadong'
p198
ssS'1417'
p199
(dp200
g3
(F120.572381
F22.399005
tp201
sg5
S'Donghai'
p202
ssS'1322'
p203
(dp204
g3
(F120.648571
F24.119304
tp205
sg5
S'Daqing'
p206
ssS'1323'
p207
(dp208
g3
(F120.699717
F24.163634
tp209
sg5
S'Taiyuan'
p210
ssS'1320'
p211
(dp212
g3
(F120.622472
F24.108692
tp213
sg5
S'Wuri'
p214
ssS'1321'
p215
(dp216
g3
(F120.590164
F24.114232
tp217
sg5
S'Chenggong'
p218
ssS'1324'
p219
(dp220
g3
(F120.614309
F24.109851
tp221
sg5
S'Xinwuri'
p222
ssS'1120'
p223
(dp224
g3
(F120.538539
F24.081666
tp225
sg5
S'Changhua'
p226
ssS'1622'
p227
(dp228
g3
(F121.278481
F23.226025
tp229
sg5
S'Dongzhu'
p230
ssS'1822'
p231
(dp232
g3
(F121.775163
F24.694192
tp233
sg5
S'Zhongli'
p234
ssS'2212'
p235
(dp236
g3
(F121.003273
F24.806662
tp237
sg5
S'Qianjia'
p238
ssS'1713'
p239
(dp240
g3
(F121.610786
F24.090317
tp241
sg5
S'Jingmei'
p242
ssS'1712'
p243
(dp244
g3
(F121.640866
F24.127524
tp245
sg5
S'Xincheng'
p246
ssS'1711'
p247
(dp248
g3
(F121.655498
F24.172116
tp249
sg5
S'Chongde'
p250
ssS'1710'
p251
(dp252
g3
(F121.711749
F24.242199
tp253
sg5
S'Heren'
p254
ssS'1807'
p255
(dp256
g3
(F121.851977
F25.058738
tp257
sg5
S'Mudan'
p258
ssS'1715'
p259
(dp260
g3
(F121.600993
F23.992868
tp261
sg5
S'Hualien'
p262
ssS'1714'
p263
(dp264
g3
(F121.601671
F24.032533
tp265
sg5
S'Beipu'
p266
ssS'1409'
p267
(dp268
g3
(F120.526697
F22.616433
tp269
sg5
S'Xishi'
p270
ssS'1408'
p271
(dp272
g3
(F120.514378
F22.634849
tp273
sg5
S'Linluo'
p274
ssS'1018'
p275
(dp276
g3
(F121.183827
F24.919951
tp277
sg5
S'Puxin'
p278
ssS'1019'
p279
(dp280
g3
(F121.146405
F24.914346
tp281
sg5
S'Yangmei'
p282
ssS'1014'
p283
(dp284
g3
(F121.355125
F24.954532
tp285
sg5
S'Yingge'
p286
ssS'1015'
p287
(dp288
g3
(F121.313499
F24.989209
tp289
sg5
S'Taoyuan'
p290
ssS'1016'
p291
(dp292
g3
(F121.258258
F24.972797
tp293
sg5
S'Neili'
p294
ssS'1017'
p295
(dp296
g3
(F121.225798
F24.953666
tp297
sg5
S'Zhongli'
p298
ssS'1407'
p299
(dp300
g3
(F120.502941
F22.65238
tp301
sg5
S'Guilai'
p302
ssS'1011'
p303
(dp304
g3
(F121.463497
F25.014399
tp305
sg5
S'Banqiao'
p306
ssS'1012'
p307
(dp308
g3
(F121.424564
F24.991348
tp309
sg5
S'Shulin'
p310
ssS'1013'
p311
(dp312
g3
(F121.392657
F24.972482
tp313
sg5
S'Shanjia'
p314
ssS'1234'
p315
(dp316
g3
(F120.310334
F22.760994
tp317
sg5
S'Qiaotou'
p318
ssS'1235'
p319
(dp320
g3
(F120.324371
F22.727035
tp321
sg5
S'Nanzi'
p322
ssS'1236'
p323
(dp324
g3
(F120.294793
F22.675204
tp325
sg5
S'Zuoying'
p326
ssS'1230'
p327
(dp328
g3
(F120.2527
F22.904544
tp329
sg5
S'Zhongzhou'
p330
ssS'1231'
p331
(dp332
g3
(F120.253934
F22.878228
tp333
sg5
S'Dahu'
p334
ssS'1232'
p335
(dp336
g3
(F120.266275
F22.853948
tp337
sg5
S'Luzhu'
p338
ssS'1233'
p339
(dp340
g3
(F120.299933
F22.792355
tp341
sg5
S'Gangshan'
p342
ssS'1238'
p343
(dp344
g3
(F120.302111
F22.63962
tp345
sg5
S'Kaohsiung'
p346
ssS'1239'
p347
(dp348
g3
(F120.22442
F23.019399
tp349
sg5
S'Daqiao'
p350
ssS'6103'
p351
(dp352
g3
(F121.800023
F25.137706
tp353
sg5
S'NMMST'
p354
ssS'1512'
p355
(dp356
g3
(F120.967239
F22.531488
tp357
sg5
S'Jinlun'
p358
ssS'1413'
p359
(dp360
g3
(F120.511738
F22.492058
tp361
sg5
S'Nanzhou'
p362
ssS'3202'
p363
(dp364
g3
(F121.636083
F23.994013
tp365
sg5
S'hualien Port'
p366
ssS'1241'
p367
(dp368
g3
(F120.448503
F23.499897
tp369
sg5
S'Jiabei'
p370
ssS'1240'
p371
(dp372
g3
(F120.560645
F23.990053
tp373
sg5
S'Dacun'
p374
ssS'1243'
p375
(dp376
g3
(F120.240609
F22.923682
tp377
sg5
S'Rende'
p378
ssS'1242'
p379
(dp380
g3
(F120.306788
F22.687544
tp381
sg5
S'Xinzuoying'
p382
ssS'1244'
p383
(dp384
g3
(F120.301996
F23.107602
tp385
sg5
S'Nanke'
p386
ssS'1009'
p387
(dp388
g3
(F121.500331
F25.03335
tp389
sg5
S'Wanhua'
p390
ssS'1008'
p391
(dp392
g3
(F121.517047
F25.047503
tp393
sg5
S'Taipei'
p394
ssS'1007'
p395
(dp396
g3
(F121.577965
F25.04933
tp397
sg5
S'Songshan'
p398
ssS'1006'
p399
(dp400
g3
(F121.607019
F25.05314
tp401
sg5
S'Nangang'
p402
ssS'1005'
p403
(dp404
g3
(F121.661757
F25.068224
tp405
sg5
S'Xizhi'
p406
ssS'1004'
p407
(dp408
g3
(F121.667701
F25.078
tp409
sg5
S'Wudu'
p410
ssS'1003'
p411
(dp412
g3
(F121.713868
F25.093359
tp413
sg5
S'Qidu'
p414
ssS'1002'
p415
(dp416
g3
(F121.729049
F25.108392
tp417
sg5
S'Badu'
p418
ssS'1001'
p419
(dp420
g3
(F121.738366
F25.131598
tp421
sg5
S'Keelung'
p422
ssS'1227'
p423
(dp424
g3
(F120.253524
F23.038338
tp425
sg5
S'Yongkang'
p426
ssS'1226'
p427
(dp428
g3
(F120.290035
F23.06823
tp429
sg5
S'Xinshi'
p430
ssS'1225'
p431
(dp432
g3
(F120.306551
F23.133323
tp433
sg5
S'Shanhua'
p434
ssS'1224'
p435
(dp436
g3
(F120.32133
F23.172622
tp437
sg5
S'Balin'
p438
ssS'1223'
p439
(dp440
g3
(F120.31929
F23.192699
tp441
sg5
S'Longtian'
p442
ssS'1222'
p443
(dp444
g3
(F120.32093
F23.24259
tp445
sg5
S'Linfengying'
p446
ssS'1221'
p447
(dp448
g3
(F120.322304
F23.277737
tp449
sg5
S'Liuying'
p450
ssS'1220'
p451
(dp452
g3
(F120.323055
F23.306732
tp453
sg5
S'Xinying'
p454
ssS'1229'
p455
(dp456
g3
(F120.231594
F22.93294
tp457
sg5
S'Baoan'
p458
ssS'1228'
p459
(dp460
g3
(F120.212966
F22.997144
tp461
sg5
S'Tainan'
p462
ssS'1908'
p463
(dp464
g3
(F121.723649
F25.023918
tp465
sg5
S'Jingtong'
p466
ssS'1906'
p467
(dp468
g3
(F121.748102
F25.030138
tp469
sg5
S'Lingjiao'
p470
ssS'1907'
p471
(dp472
g3
(F121.739984
F25.025633
tp473
sg5
S'Pingxi'
p474
ssS'1904'
p475
(dp476
g3
(F121.775229
F25.040991
tp477
sg5
S'Shifen'
p478
ssS'1905'
p479
(dp480
g3
(F121.763782
F25.03454
tp481
sg5
S'Wanggu'
p482
ssS'1903'
p483
(dp484
g3
(F121.797929
F25.049758
tp485
sg5
S'Dahua'
p486
ssS'1630'
p487
(dp488
g3
(F121.137004
F22.912469
tp489
sg5
S'Luye'
p490
ssS'1631'
p491
(dp492
g3
(F121.138031
F22.862046
tp493
sg5
S'Shanli'
p494
ssS'1632'
p495
(dp496
g3
(F121.123175
F22.793711
tp497
sg5
S'Taitung'
p498
ssS'1813'
p499
(dp500
g3
(F121.889873
F24.938423
tp501
sg5
S'Daxi'
p502
ssS'2204'
p503
(dp504
g3
(F121.055725
F24.77789
tp505
sg5
S'Shangyuan'
p506
ssS'2205'
p507
(dp508
g3
(F121.0949
F24.738257
tp509
sg5
S'Zhudong'
p510
ssS'2206'
p511
(dp512
g3
(F121.11645
F24.72056
tp513
sg5
S'Hengshan'
p514
ssS'2207'
p515
(dp516
g3
(F121.13602
F24.720599
tp517
sg5
S'Jiuzantou'
p518
ssS'2208'
p519
(dp520
g3
(F121.154403
F24.716746
tp521
sg5
S'Hexing'
p522
ssS'2209'
p523
(dp524
g3
(F121.167377
F24.715559
tp525
sg5
S'Fugui'
p526
ssS'1502'
p527
(dp528
g3
(F120.624621
F22.330971
tp529
sg5
S'Jialu'
p530
ssS'1503'
p531
(dp532
g3
(F120.643492
F22.306184
tp533
sg5
S'Neishi'
p534
ssS'1507'
p535
(dp536
g3
(F120.878079
F22.345509
tp537
sg5
S'Guzhuang'
p538
ssS'1504'
p539
(dp540
g3
(F120.659647
F22.267067
tp541
sg5
S'Fangshan'
p542
ssS'1505'
p543
(dp544
g3
(F120.717243
F22.280818
tp545
sg5
S'Fangye'
p546
ssS'1032'
p547
(dp548
g3
(F121.444649
F25.004184
tp549
sg5
S'Fuzhou'
p550
ssS'1033'
p551
(dp552
g3
(F121.055671
F24.922207
tp553
sg5
S'BeihuChina University of Technology'
p554
ssS'1030'
p555
(dp556
g3
(F121.693869
F25.077927
tp557
sg5
S'Baifu'
p558
ssS'1031'
p559
(dp560
g3
(F121.646584
F25.062626
tp561
sg5
S'Xike'
p562
ssS'1034'
p563
(dp564
g3
(F121.408796
F24.980485
tp565
sg5
S'South Shulin'
p566
ssS'1035'
p567
(dp568
g3
(F120.928937
F24.78755
tp569
sg5
S'Sanxingqiao'
p570
ssS'1212'
p571
(dp572
g3
(F120.471007
F23.639568
tp573
sg5
S'Shigui'
p574
ssS'1213'
p575
(dp576
g3
(F120.455839
F23.601076
tp577
sg5
S'Dalin'
p578
ssS'1210'
p579
(dp580
g3
(F120.541146
F23.711813
tp581
sg5
S'Douliu'
p582
ssS'1211'
p583
(dp584
g3
(F120.480841
F23.672972
tp585
sg5
S'Dounan'
p586
ssS'1217'
p587
(dp588
g3
(F120.399665
F23.433995
tp589
sg5
S'Shuishang'
p590
ssS'1214'
p591
(dp592
g3
(F120.431651
F23.555039
tp593
sg5
S'Minxiong'
p594
ssS'1215'
p595
(dp596
g3
(F120.441026
F23.479139
tp597
sg5
S'Chiayi'
p598
ssS'2203'
p599
(dp600
g3
(F121.031306
F24.781358
tp601
sg5
S'Zhuzhong'
p602
ssS'1218'
p603
(dp604
g3
(F120.386544
F23.41345
tp605
sg5
S'Nanjing'
p606
ssS'1219'
p607
(dp608
g3
(F120.360517
F23.36629
tp609
sg5
S'Houbi'
p610
ssS'2214'
p611
(dp612
g3
(F121.039417
F24.807655
tp613
sg5
S'Liujia'
p614
ssS'5102'
p615
(dp616
g3
(F120.286371
F22.923953
tp617
sg5
S'Shalun'
p618
ssS'2213'
p619
(dp620
g3
(F121.022122
F24.788176
tp621
sg5
S'Xinzhuang'
p622
ssS'1508'
p623
(dp624
g3
(F120.900713
F22.365206
tp625
sg5
S'Dawu'
p626
ssS'1025'
p627
(dp628
g3
(F120.971627
F24.801637
tp629
sg5
S'Hsinchu'
p630
ssS'1024'
p631
(dp632
g3
(F120.98367
F24.808746
tp633
sg5
S'North Hsinchu'
p634
ssS'1027'
p635
(dp636
g3
(F120.87179
F24.722782
tp637
sg5
S'Qiding'
p638
ssS'1026'
p639
(dp640
g3
(F120.91389
F24.763121
tp641
sg5
S'Xiangshan'
p642
ssS'1021'
p643
(dp644
g3
(F121.044009
F24.903029
tp645
sg5
S'Hukou'
p646
ssS'1020'
p647
(dp648
g3
(F121.083019
F24.934273
tp649
sg5
S'Fugang'
p650
ssS'1023'
p651
(dp652
g3
(F121.009376
F24.839283
tp653
sg5
S'Zhubei'
p654
ssS'1022'
p655
(dp656
g3
(F120.99634
F24.869228
tp657
sg5
S'Xinfeng'
p658
ssS'1629'
p659
(dp660
g3
(F121.159014
F22.955978
tp661
sg5
S'Ruiyuan'
p662
ssS'1628'
p663
(dp664
g3
(F121.15579
F22.979968
tp665
sg5
S'Ruihe'
p666
ssS'1029'
p667
(dp668
g3
(F121.742009
F25.123081
tp669
sg5
S'Sankeng'
p670
ssS'1028'
p671
(dp672
g3
(F120.880888
F24.686562
tp673
sg5
S'Zhunan'
p674
ssS'1106'
p675
(dp676
g3
(F120.758142
F24.611683
tp677
sg5
S'Longgang'
p678
ssS'1107'
p679
(dp680
g3
(F120.708198
F24.564797
tp681
sg5
S'Baishatun'
p682
ssS'1104'
p683
(dp684
g3
(F120.803778
F24.645645
tp685
sg5
S'Dashan'
p686
ssS'1105'
p687
(dp688
g3
(F120.787307
F24.616212
tp689
sg5
S'Houlong'
p690
ssS'1102'
p691
(dp692
g3
(F120.858241
F24.656414
tp693
sg5
S'Tanwen'
p694
ssS'1514'
p695
(dp696
g3
(F120.993368
F22.614936
tp697
sg5
S'Taimali'
p698
ssS'1517'
p699
(dp700
g3
(F121.09356
F22.764277
tp701
sg5
S'Kangle'
p702
ssS'1516'
p703
(dp704
g3
(F121.060744
F22.710182
tp705
sg5
S'Zhiben'
p706
ssS'1510'
p707
(dp708
g3
(F120.941771
F22.46104
tp709
sg5
S'Longxi'
p710
ssS'1108'
p711
(dp712
g3
(F120.695179
F24.54018
tp713
sg5
S'Xinpu'
p714
ssS'1109'
p715
(dp716
g3
(F120.678425
F24.491403
tp717
sg5
S'Tongxiao'
p718
ssS'1209'
p719
(dp720
g3
(F120.579973
F23.731643
tp721
sg5
S'Shiliu'
p722
ssS'1208'
p723
(dp724
g3
(F120.614987
F23.759681
tp725
sg5
S'Linnei'
p726
ssS'1205'
p727
(dp728
g3
(F120.5808
F23.89571
tp729
sg5
S'Shetou'
p730
ssS'1204'
p731
(dp732
g3
(F120.571672
F23.928148
tp733
sg5
S'Yongjing'
p734
ssS'1207'
p735
(dp736
g3
(F120.618115
F23.81315
tp737
sg5
S'Ershui'
p738
ssS'1206'
p739
(dp740
g3
(F120.591396
F23.858503
tp741
sg5
S'Tianzhong'
p742
ssS'1203'
p743
(dp744
g3
(F120.56965
F23.959258
tp745
sg5
S'Yuanlin'
p746
ssS'1202'
p747
(dp748
g3
(F120.5374
F24.024997
tp749
sg5
S'Huatan'
p750
ssS'1809'
p751
(dp752
g3
(F121.908703
F25.022044
tp753
sg5
S'Gongliao'
p754
ssS'1808'
p755
(dp756
g3
(F121.866548
F25.038544
tp757
sg5
S'Shuangxi'
p758
ssS'1814'
p759
(dp760
g3
(F121.868878
F24.904818
tp761
sg5
S'Guishan'
p762
ssS'1815'
p763
(dp764
g3
(F121.845758
F24.883703
tp765
sg5
S'Waiao'
p766
ssS'1816'
p767
(dp768
g3
(F121.822556
F24.858976
tp769
sg5
S'Toucheng'
p770
ssS'1817'
p771
(dp772
g3
(F121.809207
F24.843998
tp773
sg5
S'Dingpu'
p774
ssS'1810'
p775
(dp776
g3
(F121.944659
F25.015893
tp777
sg5
S'Fulong'
p778
ssS'1811'
p779
(dp780
g3
(F121.945191
F24.978334
tp781
sg5
S'Shicheng'
p782
ssS'1812'
p783
(dp784
g3
(F121.922496
F24.966799
tp785
sg5
S'Dali'
p786
ssS'1619'
p787
(dp788
g3
(F121.311726
F23.331518
tp789
sg5
S'Yuli'
p790
ssS'1616'
p791
(dp792
g3
(F121.376841
F23.497376
tp793
sg5
S'Ruisui'
p794
ssS'1617'
p795
(dp796
g3
(F121.345344
F23.424766
tp797
sg5
S'Sanmin'
p798
ssS'1614'
p799
(dp800
g3
(F121.380122
F23.580268
tp801
sg5
S'Fuyuan'
p802
ssS'1612'
p803
(dp804
g3
(F121.421168
F23.666293
tp805
sg5
S'Guangfu'
p806
ssS'1613'
p807
(dp808
g3
(F121.389624
F23.605688
tp809
sg5
S'Dafu'
p810
ssS'1610'
p811
(dp812
g3
(F121.447024
F23.74634
tp813
sg5
S'Fenglin'
p814
ssS'1611'
p815
(dp816
g3
(F121.419067
F23.711978
tp817
sg5
S'Wanrong'
p818
ssS'1111'
p819
(dp820
g3
(F120.654119
F24.378066
tp821
sg5
S'Rinan'
p822
ssS'1110'
p823
(dp824
g3
(F120.651494
F24.443426
tp825
sg5
S'Yuanli'
p826
ssS'1113'
p827
(dp828
g3
(F120.602297
F24.304366
tp829
sg5
S'Taichung Port'
p830
ssS'1112'
p831
(dp832
g3
(F120.627017
F24.34443
tp833
sg5
S'Dajia'
p834
ssS'1115'
p835
(dp836
g3
(F120.557627
F24.237044
tp837
sg5
S'Shalu'
p838
ssS'1114'
p839
(dp840
g3
(F120.569178
F24.263624
tp841
sg5
S'Qingshui'
p842
ssS'1117'
p843
(dp844
g3
(F120.542536
F24.154024
tp845
sg5
S'Dadu'
p846
ssS'1116'
p847
(dp848
g3
(F120.543371
F24.197444
tp849
sg5
S'Longjing'
p850
ssS'1118'
p851
(dp852
g3
(F120.570158
F24.120613
tp853
sg5
S'Zhuifen'
p854
ssS'2703'
p855
(dp856
g3
(F120.70472
F23.834666
tp857
sg5
S'Zhuoshui'
p858
ssS'2702'
p859
(dp860
g3
(F120.642034
F23.798445
tp861
sg5
S'Yuanquan'
p862
ssS'1609'
p863
(dp864
g3
(F121.45828
F23.782276
tp865
sg5
S'Nanping'
p866
ssS'1806'
p867
(dp868
g3
(F121.822559
F25.065544
tp869
sg5
S'Sandiaoling'
p870
ssS'1805'
p871
(dp872
g3
(F121.827424
F25.087009
tp873
sg5
S'Houtong'
p874
ssS'1804'
p875
(dp876
g3
(F121.806149
F25.108928
tp877
sg5
S'Ruifang'
p878
ssS'1803'
p879
(dp880
g3
(F121.761887
F25.102751
tp881
sg5
S'Sijiaoting'
p882
ssS'1802'
p883
(dp884
g3
(F121.740329
F25.102282
tp885
sg5
S'Nuannuan'
p886
ssS'1602'
p887
(dp888
g3
(F121.582699
F23.968179
tp889
sg5
S'Jian'
p890
ssS'1605'
p891
(dp892
g3
(F121.520485
F23.882774
tp893
sg5
S'Pinghe'
p894
ssS'1604'
p895
(dp896
g3
(F121.529437
F23.907494
tp897
sg5
S'Zhixue'
p898
ssS'1607'
p899
(dp900
g3
(F121.496168
F23.848475
tp901
sg5
S'Fengtian'
p902
ssS'1606'
p903
(dp904
g3
(F121.510633
F23.869016
tp905
sg5
S'Shoufeng'
p906
ssS'2003'
p907
(dp908
g3
(F121.803199
F25.135392
tp909
sg5
S'Badouzi'
p910
ssS'1826'
p911
(dp912
g3
(F121.82703
F24.609024
tp913
sg5
S'Suaoxin'
p914
ss.